; Function Attrs: mustprogress uwtable
define internal void @_ZN12_GLOBAL__N_120FlagsUsageConfigTest5SetUpEv(ptr nonnull readnone align 8 captures(none) %0) unnamed_addr #4 align 2 personality ptr @__gxx_personality_v0 {
  %2 = alloca %"struct.absl::FlagsUsageConfig", align 8
  %3 = alloca %"struct.absl::FlagsUsageConfig", align 8
  call void @llvm.lifetime.start.p0(i64 160, ptr nonnull %2) #23
  call void @llvm.memset.p0.i64(ptr noundef nonnull align 8 dereferenceable(160) %2, i8 0, i64 160, i1 false)
  invoke void @_ZN4absl16FlagsUsageConfigC2ERKS0_(ptr noundef nonnull align 8 dereferenceable(160) %3, ptr noundef nonnull align 8 dereferenceable(160) %2)
          to label %4 unwind label %6

4:                                                ; preds = %1
  invoke void @_ZN4absl19SetFlagsUsageConfigENS_16FlagsUsageConfigE(ptr noundef nonnull %3)
          to label %5 unwind label %8

5:                                                ; preds = %4
  call void @_ZN4absl16FlagsUsageConfigD2Ev(ptr noundef nonnull align 8 dereferenceable(160) %3) #23
  call void @_ZN4absl16FlagsUsageConfigD2Ev(ptr noundef nonnull align 8 dereferenceable(160) %2) #23
  call void @llvm.lifetime.end.p0(i64 160, ptr nonnull %2) #23
  ret void

6:                                                ; preds = %1
  %7 = landingpad { ptr, i32 }
          cleanup
  br label %10

8:                                                ; preds = %4
  %9 = landingpad { ptr, i32 }
          cleanup
  call void @_ZN4absl16FlagsUsageConfigD2Ev(ptr noundef nonnull align 8 dereferenceable(160) %3) #23
  br label %10

10:                                               ; preds = %8, %6
  %.pn = phi { ptr, i32 } [ %9, %8 ], [ %7, %6 ]
  call void @_ZN4absl16FlagsUsageConfigD2Ev(ptr noundef nonnull align 8 dereferenceable(160) %2) #23
  call void @llvm.lifetime.end.p0(i64 160, ptr nonnull %2) #23
  resume { ptr, i32 } %.pn
}